; Function Attrs: mustprogress nofree norecurse nosync nounwind willreturn memory(argmem: readwrite) uwtable
define void @H5G__ent_copy(ptr nocapture noundef writeonly %0, ptr nocapture noundef %1, i32 noundef %2) local_unnamed_addr #3 {
  tail call void @llvm.memcpy.p0.p0.i64(ptr noundef nonnull align 8 dereferenceable(40) %0, ptr noundef nonnull align 8 dereferenceable(40) %1, i64 40, i1 false)
  %4 = icmp eq i32 %2, 0
  br i1 %4, label %5, label %7

5:                                                ; preds = %3
  tail call void @llvm.memset.p0.i64(ptr noundef nonnull writeonly align 8 dereferenceable(40) %1, i8 0, i64 32, i1 false)
  %6 = getelementptr inbounds i8, ptr %1, i64 32
  store i64 -1, ptr %6, align 8
  br label %7

7:                                                ; preds = %5, %3
  ret void
}